target datalayout = "e-m:e-p270:32:32-p271:32:32-p272:64:64-i64:64-i128:128-f80:128-n8:16:32:64-S128"
target triple = "x86_64-pc-linux-gnu"

%struct.ibf_dump = type { ptr, %struct.ibf_dump_buffer, ptr }
%struct.ibf_dump_buffer = type { i64, ptr }

; Function Attrs: nounwind sspstrong uwtable
define internal i64 @ibf_dump_memsize(ptr noundef %0) #0 {
  %2 = alloca ptr, align 8
  %3 = alloca ptr, align 8
  %4 = alloca i64, align 8
  store ptr %0, ptr %2, align 8, !tbaa !152
  call void @llvm.lifetime.start.p0(i64 8, ptr %3) #31
  %5 = load ptr, ptr %2, align 8, !tbaa !152
  store ptr %5, ptr %3, align 8, !tbaa !221
  call void @llvm.lifetime.start.p0(i64 8, ptr %4) #31
  store i64 0, ptr %4, align 8, !tbaa !7
  %6 = load ptr, ptr %3, align 8, !tbaa !221
  %7 = getelementptr inbounds nuw %struct.ibf_dump, ptr %6, i32 0, i32 0
  %8 = load ptr, ptr %7, align 8, !tbaa !236
  %9 = icmp ne ptr %8, null
  br i1 %9, label %10, label %17

10:                                               ; preds = %1
  %11 = load ptr, ptr %3, align 8, !tbaa !221
  %12 = getelementptr inbounds nuw %struct.ibf_dump, ptr %11, i32 0, i32 0
  %13 = load ptr, ptr %12, align 8, !tbaa !236
  %14 = call i64 @rb_st_memsize(ptr noundef %13) #35
  %15 = load i64, ptr %4, align 8, !tbaa !7
  %16 = add i64 %15, %14
  store i64 %16, ptr %4, align 8, !tbaa !7
  br label %17

17:                                               ; preds = %10, %1
  %18 = load ptr, ptr %3, align 8, !tbaa !221
  %19 = getelementptr inbounds nuw %struct.ibf_dump, ptr %18, i32 0, i32 1
  %20 = getelementptr inbounds nuw %struct.ibf_dump_buffer, ptr %19, i32 0, i32 1
  %21 = load ptr, ptr %20, align 8, !tbaa !235
  %22 = icmp ne ptr %21, null
  br i1 %22, label %23, label %31

23:                                               ; preds = %17
  %24 = load ptr, ptr %3, align 8, !tbaa !221
  %25 = getelementptr inbounds nuw %struct.ibf_dump, ptr %24, i32 0, i32 1
  %26 = getelementptr inbounds nuw %struct.ibf_dump_buffer, ptr %25, i32 0, i32 1
  %27 = load ptr, ptr %26, align 8, !tbaa !235
  %28 = call i64 @rb_st_memsize(ptr noundef %27) #35
  %29 = load i64, ptr %4, align 8, !tbaa !7
  %30 = add i64 %29, %28
  store i64 %30, ptr %4, align 8, !tbaa !7
  br label %31

31:                                               ; preds = %23, %17
  %32 = load i64, ptr %4, align 8, !tbaa !7
  call void @llvm.lifetime.end.p0(i64 8, ptr %4) #31
  call void @llvm.lifetime.end.p0(i64 8, ptr %3) #31
  ret i64 %32
}