; Function Attrs: mustprogress nofree nounwind sspstrong willreturn memory(read) uwtable
define internal i64 @ibf_dump_memsize(ptr noundef readonly captures(none) %0) #29 {
  %2 = load ptr, ptr %0, align 8, !tbaa !306
  %.not = icmp eq ptr %2, null
  br i1 %.not, label %5, label %3

3:                                                ; preds = %1
  %4 = tail call i64 @rb_st_memsize(ptr noundef nonnull %2) #45
  br label %5

5:                                                ; preds = %3, %1
  %.0 = phi i64 [ %4, %3 ], [ 0, %1 ]
  %6 = getelementptr inbounds nuw i8, ptr %0, i64 16
  %7 = load ptr, ptr %6, align 8, !tbaa !302
  %.not9 = icmp eq ptr %7, null
  br i1 %.not9, label %11, label %8

8:                                                ; preds = %5
  %9 = tail call i64 @rb_st_memsize(ptr noundef nonnull %7) #45
  %10 = add i64 %9, %.0
  br label %11

11:                                               ; preds = %8, %5
  %.1 = phi i64 [ %10, %8 ], [ %.0, %5 ]
  ret i64 %.1
}